target datalayout = "e-m:e-p270:32:32-p271:32:32-p272:64:64-i64:64-i128:128-f80:128-n8:16:32:64-S128"
target triple = "x86_64-pc-linux-gnu"

; Function Attrs: nounwind uwtable
define internal void @pred4x4_horizontal_down_12_c(ptr noundef %0, ptr noundef %1, i64 noundef %2) #1 {
  %4 = alloca ptr, align 8
  %5 = alloca ptr, align 8
  %6 = alloca i64, align 8
  %7 = alloca ptr, align 8
  %8 = alloca i32, align 4
  %9 = alloca i32, align 4
  %10 = alloca i32, align 4
  %11 = alloca i32, align 4
  %12 = alloca i32, align 4
  %13 = alloca i32, align 4
  %14 = alloca i32, align 4
  %15 = alloca i32, align 4
  %16 = alloca i32, align 4
  %17 = alloca i32, align 4
  store ptr %0, ptr %4, align 8, !tbaa !12
  store ptr %1, ptr %5, align 8, !tbaa !12
  store i64 %2, ptr %6, align 8, !tbaa !14
  call void @llvm.lifetime.start.p0(i64 8, ptr %7) #9
  %18 = load ptr, ptr %4, align 8, !tbaa !12
  store ptr %18, ptr %7, align 8, !tbaa !16
  call void @llvm.lifetime.start.p0(i64 4, ptr %8) #9
  %19 = load i64, ptr %6, align 8, !tbaa !14
  %20 = ashr i64 %19, 1
  %21 = trunc i64 %20 to i32
  store i32 %21, ptr %8, align 4, !tbaa !9
  call void @llvm.lifetime.start.p0(i64 4, ptr %9) #9
  %22 = load ptr, ptr %7, align 8, !tbaa !16
  %23 = load i32, ptr %8, align 4, !tbaa !9
  %24 = mul nsw i32 1, %23
  %25 = sub nsw i32 -1, %24
  %26 = sext i32 %25 to i64
  %27 = getelementptr inbounds i16, ptr %22, i64 %26
  %28 = load i16, ptr %27, align 2, !tbaa !19
  %29 = zext i16 %28 to i32
  store i32 %29, ptr %9, align 4, !tbaa !9
  call void @llvm.lifetime.start.p0(i64 4, ptr %10) #9
  %30 = load ptr, ptr %7, align 8, !tbaa !16
  %31 = load i32, ptr %8, align 4, !tbaa !9
  %32 = mul nsw i32 1, %31
  %33 = sub nsw i32 0, %32
  %34 = sext i32 %33 to i64
  %35 = getelementptr inbounds i16, ptr %30, i64 %34
  %36 = load i16, ptr %35, align 2, !tbaa !19
  %37 = zext i16 %36 to i32
  store i32 %37, ptr %10, align 4, !tbaa !9
  call void @llvm.lifetime.start.p0(i64 4, ptr %11) #9
  %38 = load ptr, ptr %7, align 8, !tbaa !16
  %39 = load i32, ptr %8, align 4, !tbaa !9
  %40 = mul nsw i32 1, %39
  %41 = sub nsw i32 1, %40
  %42 = sext i32 %41 to i64
  %43 = getelementptr inbounds i16, ptr %38, i64 %42
  %44 = load i16, ptr %43, align 2, !tbaa !19
  %45 = zext i16 %44 to i32
  store i32 %45, ptr %11, align 4, !tbaa !9
  call void @llvm.lifetime.start.p0(i64 4, ptr %12) #9
  %46 = load ptr, ptr %7, align 8, !tbaa !16
  %47 = load i32, ptr %8, align 4, !tbaa !9
  %48 = mul nsw i32 1, %47
  %49 = sub nsw i32 2, %48
  %50 = sext i32 %49 to i64
  %51 = getelementptr inbounds i16, ptr %46, i64 %50
  %52 = load i16, ptr %51, align 2, !tbaa !19
  %53 = zext i16 %52 to i32
  store i32 %53, ptr %12, align 4, !tbaa !9
  call void @llvm.lifetime.start.p0(i64 4, ptr %13) #9
  %54 = load ptr, ptr %7, align 8, !tbaa !16
  %55 = load i32, ptr %8, align 4, !tbaa !9
  %56 = mul nsw i32 1, %55
  %57 = sub nsw i32 3, %56
  %58 = sext i32 %57 to i64
  %59 = getelementptr inbounds i16, ptr %54, i64 %58
  %60 = load i16, ptr %59, align 2, !tbaa !19
  %61 = zext i16 %60 to i32
  store i32 %61, ptr %13, align 4, !tbaa !9
  call void @llvm.lifetime.start.p0(i64 4, ptr %14) #9
  %62 = load ptr, ptr %7, align 8, !tbaa !16
  %63 = load i32, ptr %8, align 4, !tbaa !9
  %64 = mul nsw i32 0, %63
  %65 = add nsw i32 -1, %64
  %66 = sext i32 %65 to i64
  %67 = getelementptr inbounds i16, ptr %62, i64 %66
  %68 = load i16, ptr %67, align 2, !tbaa !19
  %69 = zext i16 %68 to i32
  store i32 %69, ptr %14, align 4, !tbaa !9
  call void @llvm.lifetime.start.p0(i64 4, ptr %15) #9
  %70 = load ptr, ptr %7, align 8, !tbaa !16
  %71 = load i32, ptr %8, align 4, !tbaa !9
  %72 = mul nsw i32 1, %71
  %73 = add nsw i32 -1, %72
  %74 = sext i32 %73 to i64
  %75 = getelementptr inbounds i16, ptr %70, i64 %74
  %76 = load i16, ptr %75, align 2, !tbaa !19
  %77 = zext i16 %76 to i32
  store i32 %77, ptr %15, align 4, !tbaa !9
  call void @llvm.lifetime.start.p0(i64 4, ptr %16) #9
  %78 = load ptr, ptr %7, align 8, !tbaa !16
  %79 = load i32, ptr %8, align 4, !tbaa !9
  %80 = mul nsw i32 2, %79
  %81 = add nsw i32 -1, %80
  %82 = sext i32 %81 to i64
  %83 = getelementptr inbounds i16, ptr %78, i64 %82
  %84 = load i16, ptr %83, align 2, !tbaa !19
  %85 = zext i16 %84 to i32
  store i32 %85, ptr %16, align 4, !tbaa !9
  call void @llvm.lifetime.start.p0(i64 4, ptr %17) #9
  %86 = load ptr, ptr %7, align 8, !tbaa !16
  %87 = load i32, ptr %8, align 4, !tbaa !9
  %88 = mul nsw i32 3, %87
  %89 = add nsw i32 -1, %88
  %90 = sext i32 %89 to i64
  %91 = getelementptr inbounds i16, ptr %86, i64 %90
  %92 = load i16, ptr %91, align 2, !tbaa !19
  %93 = zext i16 %92 to i32
  store i32 %93, ptr %17, align 4, !tbaa !9
  %94 = load i32, ptr %9, align 4, !tbaa !9
  %95 = load i32, ptr %14, align 4, !tbaa !9
  %96 = add i32 %94, %95
  %97 = add i32 %96, 1
  %98 = lshr i32 %97, 1
  %99 = trunc i32 %98 to i16
  %100 = load ptr, ptr %7, align 8, !tbaa !16
  %101 = load i32, ptr %8, align 4, !tbaa !9
  %102 = mul nsw i32 1, %101
  %103 = add nsw i32 2, %102
  %104 = sext i32 %103 to i64
  %105 = getelementptr inbounds i16, ptr %100, i64 %104
  store i16 %99, ptr %105, align 2, !tbaa !19
  %106 = load ptr, ptr %7, align 8, !tbaa !16
  %107 = load i32, ptr %8, align 4, !tbaa !9
  %108 = mul nsw i32 0, %107
  %109 = add nsw i32 0, %108
  %110 = sext i32 %109 to i64
  %111 = getelementptr inbounds i16, ptr %106, i64 %110
  store i16 %99, ptr %111, align 2, !tbaa !19
  %112 = load i32, ptr %14, align 4, !tbaa !9
  %113 = load i32, ptr %9, align 4, !tbaa !9
  %114 = mul nsw i32 2, %113
  %115 = add i32 %112, %114
  %116 = load i32, ptr %10, align 4, !tbaa !9
  %117 = add i32 %115, %116
  %118 = add i32 %117, 2
  %119 = lshr i32 %118, 2
  %120 = trunc i32 %119 to i16
  %121 = load ptr, ptr %7, align 8, !tbaa !16
  %122 = load i32, ptr %8, align 4, !tbaa !9
  %123 = mul nsw i32 1, %122
  %124 = add nsw i32 3, %123
  %125 = sext i32 %124 to i64
  %126 = getelementptr inbounds i16, ptr %121, i64 %125
  store i16 %120, ptr %126, align 2, !tbaa !19
  %127 = load ptr, ptr %7, align 8, !tbaa !16
  %128 = load i32, ptr %8, align 4, !tbaa !9
  %129 = mul nsw i32 0, %128
  %130 = add nsw i32 1, %129
  %131 = sext i32 %130 to i64
  %132 = getelementptr inbounds i16, ptr %127, i64 %131
  store i16 %120, ptr %132, align 2, !tbaa !19
  %133 = load i32, ptr %9, align 4, !tbaa !9
  %134 = load i32, ptr %10, align 4, !tbaa !9
  %135 = mul i32 2, %134
  %136 = add i32 %133, %135
  %137 = load i32, ptr %11, align 4, !tbaa !9
  %138 = add i32 %136, %137
  %139 = add i32 %138, 2
  %140 = lshr i32 %139, 2
  %141 = trunc i32 %140 to i16
  %142 = load ptr, ptr %7, align 8, !tbaa !16
  %143 = load i32, ptr %8, align 4, !tbaa !9
  %144 = mul nsw i32 0, %143
  %145 = add nsw i32 2, %144
  %146 = sext i32 %145 to i64
  %147 = getelementptr inbounds i16, ptr %142, i64 %146
  store i16 %141, ptr %147, align 2, !tbaa !19
  %148 = load i32, ptr %10, align 4, !tbaa !9
  %149 = load i32, ptr %11, align 4, !tbaa !9
  %150 = mul i32 2, %149
  %151 = add i32 %148, %150
  %152 = load i32, ptr %12, align 4, !tbaa !9
  %153 = add i32 %151, %152
  %154 = add i32 %153, 2
  %155 = lshr i32 %154, 2
  %156 = trunc i32 %155 to i16
  %157 = load ptr, ptr %7, align 8, !tbaa !16
  %158 = load i32, ptr %8, align 4, !tbaa !9
  %159 = mul nsw i32 0, %158
  %160 = add nsw i32 3, %159
  %161 = sext i32 %160 to i64
  %162 = getelementptr inbounds i16, ptr %157, i64 %161
  store i16 %156, ptr %162, align 2, !tbaa !19
  %163 = load i32, ptr %14, align 4, !tbaa !9
  %164 = load i32, ptr %15, align 4, !tbaa !9
  %165 = add i32 %163, %164
  %166 = add i32 %165, 1
  %167 = lshr i32 %166, 1
  %168 = trunc i32 %167 to i16
  %169 = load ptr, ptr %7, align 8, !tbaa !16
  %170 = load i32, ptr %8, align 4, !tbaa !9
  %171 = mul nsw i32 2, %170
  %172 = add nsw i32 2, %171
  %173 = sext i32 %172 to i64
  %174 = getelementptr inbounds i16, ptr %169, i64 %173
  store i16 %168, ptr %174, align 2, !tbaa !19
  %175 = load ptr, ptr %7, align 8, !tbaa !16
  %176 = load i32, ptr %8, align 4, !tbaa !9
  %177 = mul nsw i32 1, %176
  %178 = add nsw i32 0, %177
  %179 = sext i32 %178 to i64
  %180 = getelementptr inbounds i16, ptr %175, i64 %179
  store i16 %168, ptr %180, align 2, !tbaa !19
  %181 = load i32, ptr %9, align 4, !tbaa !9
  %182 = load i32, ptr %14, align 4, !tbaa !9
  %183 = mul i32 2, %182
  %184 = add i32 %181, %183
  %185 = load i32, ptr %15, align 4, !tbaa !9
  %186 = add i32 %184, %185
  %187 = add i32 %186, 2
  %188 = lshr i32 %187, 2
  %189 = trunc i32 %188 to i16
  %190 = load ptr, ptr %7, align 8, !tbaa !16
  %191 = load i32, ptr %8, align 4, !tbaa !9
  %192 = mul nsw i32 2, %191
  %193 = add nsw i32 3, %192
  %194 = sext i32 %193 to i64
  %195 = getelementptr inbounds i16, ptr %190, i64 %194
  store i16 %189, ptr %195, align 2, !tbaa !19
  %196 = load ptr, ptr %7, align 8, !tbaa !16
  %197 = load i32, ptr %8, align 4, !tbaa !9
  %198 = mul nsw i32 1, %197
  %199 = add nsw i32 1, %198
  %200 = sext i32 %199 to i64
  %201 = getelementptr inbounds i16, ptr %196, i64 %200
  store i16 %189, ptr %201, align 2, !tbaa !19
  %202 = load i32, ptr %15, align 4, !tbaa !9
  %203 = load i32, ptr %16, align 4, !tbaa !9
  %204 = add i32 %202, %203
  %205 = add i32 %204, 1
  %206 = lshr i32 %205, 1
  %207 = trunc i32 %206 to i16
  %208 = load ptr, ptr %7, align 8, !tbaa !16
  %209 = load i32, ptr %8, align 4, !tbaa !9
  %210 = mul nsw i32 3, %209
  %211 = add nsw i32 2, %210
  %212 = sext i32 %211 to i64
  %213 = getelementptr inbounds i16, ptr %208, i64 %212
  store i16 %207, ptr %213, align 2, !tbaa !19
  %214 = load ptr, ptr %7, align 8, !tbaa !16
  %215 = load i32, ptr %8, align 4, !tbaa !9
  %216 = mul nsw i32 2, %215
  %217 = add nsw i32 0, %216
  %218 = sext i32 %217 to i64
  %219 = getelementptr inbounds i16, ptr %214, i64 %218
  store i16 %207, ptr %219, align 2, !tbaa !19
  %220 = load i32, ptr %14, align 4, !tbaa !9
  %221 = load i32, ptr %15, align 4, !tbaa !9
  %222 = mul i32 2, %221
  %223 = add i32 %220, %222
  %224 = load i32, ptr %16, align 4, !tbaa !9
  %225 = add i32 %223, %224
  %226 = add i32 %225, 2
  %227 = lshr i32 %226, 2
  %228 = trunc i32 %227 to i16
  %229 = load ptr, ptr %7, align 8, !tbaa !16
  %230 = load i32, ptr %8, align 4, !tbaa !9
  %231 = mul nsw i32 3, %230
  %232 = add nsw i32 3, %231
  %233 = sext i32 %232 to i64
  %234 = getelementptr inbounds i16, ptr %229, i64 %233
  store i16 %228, ptr %234, align 2, !tbaa !19
  %235 = load ptr, ptr %7, align 8, !tbaa !16
  %236 = load i32, ptr %8, align 4, !tbaa !9
  %237 = mul nsw i32 2, %236
  %238 = add nsw i32 1, %237
  %239 = sext i32 %238 to i64
  %240 = getelementptr inbounds i16, ptr %235, i64 %239
  store i16 %228, ptr %240, align 2, !tbaa !19
  %241 = load i32, ptr %16, align 4, !tbaa !9
  %242 = load i32, ptr %17, align 4, !tbaa !9
  %243 = add i32 %241, %242
  %244 = add i32 %243, 1
  %245 = lshr i32 %244, 1
  %246 = trunc i32 %245 to i16
  %247 = load ptr, ptr %7, align 8, !tbaa !16
  %248 = load i32, ptr %8, align 4, !tbaa !9
  %249 = mul nsw i32 3, %248
  %250 = add nsw i32 0, %249
  %251 = sext i32 %250 to i64
  %252 = getelementptr inbounds i16, ptr %247, i64 %251
  store i16 %246, ptr %252, align 2, !tbaa !19
  %253 = load i32, ptr %15, align 4, !tbaa !9
  %254 = load i32, ptr %16, align 4, !tbaa !9
  %255 = mul i32 2, %254
  %256 = add i32 %253, %255
  %257 = load i32, ptr %17, align 4, !tbaa !9
  %258 = add i32 %256, %257
  %259 = add i32 %258, 2
  %260 = lshr i32 %259, 2
  %261 = trunc i32 %260 to i16
  %262 = load ptr, ptr %7, align 8, !tbaa !16
  %263 = load i32, ptr %8, align 4, !tbaa !9
  %264 = mul nsw i32 3, %263
  %265 = add nsw i32 1, %264
  %266 = sext i32 %265 to i64
  %267 = getelementptr inbounds i16, ptr %262, i64 %266
  store i16 %261, ptr %267, align 2, !tbaa !19
  call void @llvm.lifetime.end.p0(i64 4, ptr %17) #9
  call void @llvm.lifetime.end.p0(i64 4, ptr %16) #9
  call void @llvm.lifetime.end.p0(i64 4, ptr %15) #9
  call void @llvm.lifetime.end.p0(i64 4, ptr %14) #9
  call void @llvm.lifetime.end.p0(i64 4, ptr %13) #9
  call void @llvm.lifetime.end.p0(i64 4, ptr %12) #9
  call void @llvm.lifetime.end.p0(i64 4, ptr %11) #9
  call void @llvm.lifetime.end.p0(i64 4, ptr %10) #9
  call void @llvm.lifetime.end.p0(i64 4, ptr %9) #9
  call void @llvm.lifetime.end.p0(i64 4, ptr %8) #9
  call void @llvm.lifetime.end.p0(i64 8, ptr %7) #9
  ret void
}