; Function Attrs: mustprogress nofree norecurse nosync nounwind willreturn memory(argmem: readwrite) uwtable
define internal void @pred4x4_horizontal_down_12_c(ptr noundef captures(none) %0, ptr readnone captures(none) %1, i64 noundef %2) #1 {
  %4 = lshr i64 %2, 1
  %5 = trunc i64 %4 to i32
  %6 = xor i64 %4, -1
  %sext = shl i64 %6, 32
  %7 = ashr exact i64 %sext, 31
  %8 = getelementptr inbounds i8, ptr %0, i64 %7
  %9 = load i16, ptr %8, align 2, !tbaa !9
  %10 = zext i16 %9 to i32
  %.neg = mul i64 %4, -4294967296
  %11 = ashr exact i64 %.neg, 31
  %12 = getelementptr inbounds i8, ptr %0, i64 %11
  %13 = load i16, ptr %12, align 2, !tbaa !9
  %14 = zext i16 %13 to i32
  %15 = shl i64 %4, 32
  %sext78 = sub i64 4294967296, %15
  %16 = ashr exact i64 %sext78, 31
  %17 = getelementptr inbounds i8, ptr %0, i64 %16
  %18 = load i16, ptr %17, align 2, !tbaa !9
  %19 = zext i16 %18 to i32
  %sext79 = sub i64 8589934592, %15
  %20 = ashr exact i64 %sext79, 31
  %21 = getelementptr inbounds i8, ptr %0, i64 %20
  %22 = load i16, ptr %21, align 2, !tbaa !9
  %23 = zext i16 %22 to i32
  %24 = getelementptr inbounds i8, ptr %0, i64 -2
  %25 = load i16, ptr %24, align 2, !tbaa !9
  %26 = zext i16 %25 to i32
  %sext80 = add i64 %15, -4294967296
  %27 = ashr exact i64 %sext80, 31
  %28 = getelementptr inbounds i8, ptr %0, i64 %27
  %29 = load i16, ptr %28, align 2, !tbaa !9
  %30 = zext i16 %29 to i32
  %31 = shl nsw i32 %5, 1
  %32 = sext i32 %31 to i64
  %33 = getelementptr i16, ptr %0, i64 %32
  %34 = getelementptr i8, ptr %33, i64 -2
  %35 = load i16, ptr %34, align 2, !tbaa !9
  %36 = zext i16 %35 to i32
  %sext85 = mul i64 %4, 12884901888
  %37 = ashr exact i64 %sext85, 31
  %38 = getelementptr i8, ptr %0, i64 %37
  %39 = getelementptr i8, ptr %38, i64 -2
  %40 = load i16, ptr %39, align 2, !tbaa !9
  %41 = zext i16 %40 to i32
  %42 = add nuw nsw i32 %26, 1
  %43 = add nuw nsw i32 %42, %10
  %44 = lshr i32 %43, 1
  %45 = trunc nuw i32 %44 to i16
  %sext81 = add i64 %15, 8589934592
  %46 = ashr exact i64 %sext81, 31
  %47 = getelementptr inbounds i8, ptr %0, i64 %46
  store i16 %45, ptr %47, align 2, !tbaa !9
  store i16 %45, ptr %0, align 2, !tbaa !9
  %48 = shl nuw nsw i32 %10, 1
  %49 = add nuw nsw i32 %14, 2
  %50 = add nuw nsw i32 %49, %48
  %51 = add nuw nsw i32 %50, %26
  %52 = lshr i32 %51, 2
  %53 = trunc nuw i32 %52 to i16
  %sext82 = add i64 %15, 12884901888
  %54 = ashr exact i64 %sext82, 31
  %55 = getelementptr inbounds i8, ptr %0, i64 %54
  store i16 %53, ptr %55, align 2, !tbaa !9
  %56 = getelementptr inbounds nuw i8, ptr %0, i64 2
  store i16 %53, ptr %56, align 2, !tbaa !9
  %57 = shl nuw nsw i32 %14, 1
  %58 = add nuw nsw i32 %10, 2
  %59 = add nuw nsw i32 %58, %57
  %60 = add nuw nsw i32 %59, %19
  %61 = lshr i32 %60, 2
  %62 = trunc nuw i32 %61 to i16
  %63 = getelementptr inbounds nuw i8, ptr %0, i64 4
  store i16 %62, ptr %63, align 2, !tbaa !9
  %64 = shl nuw nsw i32 %19, 1
  %65 = add nuw nsw i32 %49, %64
  %66 = add nuw nsw i32 %65, %23
  %67 = lshr i32 %66, 2
  %68 = trunc nuw i32 %67 to i16
  %69 = getelementptr inbounds nuw i8, ptr %0, i64 6
  store i16 %68, ptr %69, align 2, !tbaa !9
  %70 = add nuw nsw i32 %42, %30
  %71 = lshr i32 %70, 1
  %72 = trunc nuw i32 %71 to i16
  %73 = getelementptr i8, ptr %33, i64 4
  store i16 %72, ptr %73, align 2, !tbaa !9
  %74 = ashr exact i64 %15, 31
  %75 = getelementptr inbounds i8, ptr %0, i64 %74
  store i16 %72, ptr %75, align 2, !tbaa !9
  %76 = shl nuw nsw i32 %26, 1
  %77 = add nuw nsw i32 %58, %76
  %78 = add nuw nsw i32 %77, %30
  %79 = lshr i32 %78, 2
  %80 = trunc nuw i32 %79 to i16
  %81 = getelementptr i8, ptr %33, i64 6
  store i16 %80, ptr %81, align 2, !tbaa !9
  %sext84 = add i64 %15, 4294967296
  %82 = ashr exact i64 %sext84, 31
  %83 = getelementptr inbounds i8, ptr %0, i64 %82
  store i16 %80, ptr %83, align 2, !tbaa !9
  %84 = add nuw nsw i32 %30, 1
  %85 = add nuw nsw i32 %84, %36
  %86 = lshr i32 %85, 1
  %87 = trunc nuw i32 %86 to i16
  %88 = getelementptr i8, ptr %38, i64 4
  store i16 %87, ptr %88, align 2, !tbaa !9
  store i16 %87, ptr %33, align 2, !tbaa !9
  %89 = shl nuw nsw i32 %30, 1
  %90 = add nuw nsw i32 %26, 2
  %91 = add nuw nsw i32 %90, %89
  %92 = add nuw nsw i32 %91, %36
  %93 = lshr i32 %92, 2
  %94 = trunc nuw i32 %93 to i16
  %95 = getelementptr i8, ptr %38, i64 6
  store i16 %94, ptr %95, align 2, !tbaa !9
  %96 = getelementptr i8, ptr %33, i64 2
  store i16 %94, ptr %96, align 2, !tbaa !9
  %97 = add nuw nsw i32 %36, 1
  %98 = add nuw nsw i32 %97, %41
  %99 = lshr i32 %98, 1
  %100 = trunc nuw i32 %99 to i16
  store i16 %100, ptr %38, align 2, !tbaa !9
  %101 = shl nuw nsw i32 %36, 1
  %102 = add nuw nsw i32 %30, 2
  %103 = add nuw nsw i32 %102, %101
  %104 = add nuw nsw i32 %103, %41
  %105 = lshr i32 %104, 2
  %106 = trunc nuw i32 %105 to i16
  %107 = getelementptr i8, ptr %38, i64 2
  store i16 %106, ptr %107, align 2, !tbaa !9
  ret void
}